target datalayout = "e-m:e-p270:32:32-p271:32:32-p272:64:64-i64:64-i128:128-f80:128-n8:16:32:64-S128"
target triple = "x86_64-pc-linux-gnu"

%struct.If_Man_t_ = type { ptr, ptr, ptr, ptr, ptr, ptr, ptr, ptr, [5 x i32], i32, float, float, float, float, i32, float, i32, i32, [4 x ptr], ptr, i32, i32, i32, ptr, [3 x [32 x i32]], i32, i32, i32, ptr, ptr, ptr, ptr, ptr, ptr, ptr, i32, i32, i32, [16 x i32], i32, i32, i32, i32, ptr, ptr, ptr, ptr, ptr, i32, i32, [32 x i32], [32 x i32], i32, i32, i32, i32, ptr, [16 x ptr], [16 x ptr], [16 x ptr], [16 x ptr], [16 x ptr], [16 x ptr], [16 x ptr], ptr, ptr, ptr, ptr, [32 x i8], i32, i32, i32, [6 x i64], [2 x i32], [2 x i32], ptr, [15 x i32], ptr, ptr, ptr, [16 x i32], ptr, ptr, ptr, ptr, [2 x i32], [2 x i32], [2 x ptr], ptr }
%struct.If_Obj_t_ = type { i32, i32, i32, i32, i32, i32, ptr, ptr, ptr, float, float, float, %union.anon, ptr, %struct.If_Cut_t_ }
%union.anon = type { ptr }
%struct.If_Cut_t_ = type <{ float, float, float, float, i32, i32, i32, i64, [0 x i32] }>
%struct.Vec_Ptr_t_ = type { i32, i32, ptr }

@If_CutDelaySpecial.Pin2Pin = internal global [2 x [3 x float]] [[3 x float] [float 1.000000e+00, float 1.000000e+00, float 1.000000e+00], [3 x float] [float 1.000000e+00, float 1.000000e+00, float 0.000000e+00]], align 16

; Function Attrs: inlinehint nounwind uwtable
define internal ptr @Vec_PtrEntry(ptr noundef %0, i32 noundef %1) #0 {
  %3 = alloca ptr, align 8
  %4 = alloca i32, align 4
  store ptr %0, ptr %3, align 8, !tbaa !29
  store i32 %1, ptr %4, align 4, !tbaa !34
  %5 = load ptr, ptr %3, align 8, !tbaa !29
  %6 = getelementptr inbounds nuw %struct.Vec_Ptr_t_, ptr %5, i32 0, i32 2
  %7 = load ptr, ptr %6, align 8, !tbaa !40
  %8 = load i32, ptr %4, align 4, !tbaa !34
  %9 = sext i32 %8 to i64
  %10 = getelementptr inbounds ptr, ptr %7, i64 %9
  %11 = load ptr, ptr %10, align 8, !tbaa !36
  ret ptr %11
}

; Function Attrs: inlinehint nounwind uwtable
define internal ptr @If_ObjCutBest(ptr noundef %0) #0 {
  %2 = alloca ptr, align 8
  store ptr %0, ptr %2, align 8, !tbaa !28
  %3 = load ptr, ptr %2, align 8, !tbaa !28
  %4 = getelementptr inbounds nuw %struct.If_Obj_t_, ptr %3, i32 0, i32 14
  ret ptr %4
}

; Function Attrs: inlinehint nounwind uwtable
define internal ptr @If_ManObj(ptr noundef %0, i32 noundef %1) #0 {
  %3 = alloca ptr, align 8
  %4 = alloca i32, align 4
  store ptr %0, ptr %3, align 8, !tbaa !3
  store i32 %1, ptr %4, align 4, !tbaa !34
  %5 = load ptr, ptr %3, align 8, !tbaa !3
  %6 = getelementptr inbounds nuw %struct.If_Man_t_, ptr %5, i32 0, i32 5
  %7 = load ptr, ptr %6, align 8, !tbaa !46
  %8 = load i32, ptr %4, align 4, !tbaa !34
  %9 = call ptr @Vec_PtrEntry(ptr noundef %7, i32 noundef %8)
  ret ptr %9
}

; Function Attrs: nounwind uwtable
define float @If_CutDelaySpecial(ptr noundef %0, ptr noundef %1, i32 noundef %2) #1 {
  %4 = alloca ptr, align 8
  %5 = alloca ptr, align 8
  %6 = alloca i32, align 4
  %7 = alloca ptr, align 8
  %8 = alloca float, align 4
  %9 = alloca float, align 4
  %10 = alloca i32, align 4
  store ptr %0, ptr %4, align 8, !tbaa !3
  store ptr %1, ptr %5, align 8, !tbaa !8
  store i32 %2, ptr %6, align 4, !tbaa !34
  call void @llvm.lifetime.start.p0(i64 8, ptr %7) #12
  call void @llvm.lifetime.start.p0(i64 4, ptr %8) #12
  call void @llvm.lifetime.start.p0(i64 4, ptr %9) #12
  store float 0xC415AF1D80000000, ptr %9, align 4, !tbaa !47
  call void @llvm.lifetime.start.p0(i64 4, ptr %10) #12
  store i32 0, ptr %10, align 4, !tbaa !34
  br label %11

11:                                               ; preds = %62, %3
  %12 = load i32, ptr %10, align 4, !tbaa !34
  %13 = load ptr, ptr %5, align 8, !tbaa !8
  %14 = getelementptr inbounds nuw %struct.If_Cut_t_, ptr %13, i32 0, i32 7
  %15 = load i64, ptr %14, align 4
  %16 = lshr i64 %15, 24
  %17 = and i64 %16, 255
  %18 = trunc i64 %17 to i32
  %19 = icmp slt i32 %12, %18
  br i1 %19, label %20, label %30

20:                                               ; preds = %11
  %21 = load ptr, ptr %4, align 8, !tbaa !3
  %22 = load ptr, ptr %5, align 8, !tbaa !8
  %23 = getelementptr inbounds nuw %struct.If_Cut_t_, ptr %22, i32 0, i32 8
  %24 = load i32, ptr %10, align 4, !tbaa !34
  %25 = sext i32 %24 to i64
  %26 = getelementptr inbounds [0 x i32], ptr %23, i64 0, i64 %25
  %27 = load i32, ptr %26, align 4, !tbaa !34
  %28 = call ptr @If_ManObj(ptr noundef %21, i32 noundef %27)
  store ptr %28, ptr %7, align 8, !tbaa !28
  %29 = icmp ne ptr %28, null
  br label %30

30:                                               ; preds = %20, %11
  %31 = phi i1 [ false, %11 ], [ %29, %20 ]
  br i1 %31, label %32, label %65

32:                                               ; preds = %30
  %33 = load ptr, ptr %7, align 8, !tbaa !28
  %34 = call ptr @If_ObjCutBest(ptr noundef %33)
  %35 = getelementptr inbounds nuw %struct.If_Cut_t_, ptr %34, i32 0, i32 3
  %36 = load float, ptr %35, align 4, !tbaa !42
  store float %36, ptr %8, align 4, !tbaa !47
  %37 = load float, ptr %9, align 4, !tbaa !47
  %38 = load i32, ptr %6, align 4, !tbaa !34
  %39 = sext i32 %38 to i64
  %40 = getelementptr inbounds [2 x [3 x float]], ptr @If_CutDelaySpecial.Pin2Pin, i64 0, i64 %39
  %41 = load i32, ptr %10, align 4, !tbaa !34
  %42 = sext i32 %41 to i64
  %43 = getelementptr inbounds [3 x float], ptr %40, i64 0, i64 %42
  %44 = load float, ptr %43, align 4, !tbaa !47
  %45 = load float, ptr %8, align 4, !tbaa !47
  %46 = fadd float %44, %45
  %47 = fcmp ogt float %37, %46
  br i1 %47, label %48, label %50

48:                                               ; preds = %32
  %49 = load float, ptr %9, align 4, !tbaa !47
  br label %60

50:                                               ; preds = %32
  %51 = load i32, ptr %6, align 4, !tbaa !34
  %52 = sext i32 %51 to i64
  %53 = getelementptr inbounds [2 x [3 x float]], ptr @If_CutDelaySpecial.Pin2Pin, i64 0, i64 %52
  %54 = load i32, ptr %10, align 4, !tbaa !34
  %55 = sext i32 %54 to i64
  %56 = getelementptr inbounds [3 x float], ptr %53, i64 0, i64 %55
  %57 = load float, ptr %56, align 4, !tbaa !47
  %58 = load float, ptr %8, align 4, !tbaa !47
  %59 = fadd float %57, %58
  br label %60

60:                                               ; preds = %50, %48
  %61 = phi float [ %49, %48 ], [ %59, %50 ]
  store float %61, ptr %9, align 4, !tbaa !47
  br label %62

62:                                               ; preds = %60
  %63 = load i32, ptr %10, align 4, !tbaa !34
  %64 = add nsw i32 %63, 1
  store i32 %64, ptr %10, align 4, !tbaa !34
  br label %11, !llvm.loop !48

65:                                               ; preds = %30
  %66 = load float, ptr %9, align 4, !tbaa !47
  call void @llvm.lifetime.end.p0(i64 4, ptr %10) #12
  call void @llvm.lifetime.end.p0(i64 4, ptr %9) #12
  call void @llvm.lifetime.end.p0(i64 4, ptr %8) #12
  call void @llvm.lifetime.end.p0(i64 8, ptr %7) #12
  ret float %66
}