; Function Attrs: nofree norecurse nosync nounwind memory(read, inaccessiblemem: none) uwtable
define float @If_CutDelaySpecial(ptr noundef readonly captures(none) %0, ptr noundef readonly captures(none) %1, i32 noundef %2) local_unnamed_addr #2 {
  %4 = getelementptr inbounds nuw i8, ptr %1, i64 36
  %5 = getelementptr inbounds nuw i8, ptr %1, i64 28
  %6 = load i64, ptr %5, align 4
  %7 = and i64 %6, 4278190080
  %.not22 = icmp eq i64 %7, 0
  br i1 %.not22, label %.critedge, label %.lr.ph

.lr.ph:                                           ; preds = %3
  %8 = lshr i64 %6, 24
  %9 = getelementptr i8, ptr %0, i64 40
  %.val = load ptr, ptr %9, align 8, !tbaa !35
  %10 = getelementptr i8, ptr %.val, i64 8
  %.val.val = load ptr, ptr %10, align 8, !tbaa !11
  %11 = sext i32 %2 to i64
  %wide.trip.count = and i64 %8, 255
  br label %12

12:                                               ; preds = %.lr.ph, %18
  %indvars.iv = phi i64 [ 0, %.lr.ph ], [ %indvars.iv.next, %18 ]
  %.01518 = phi float [ 0xC415AF1D80000000, %.lr.ph ], [ %.015., %18 ]
  %13 = getelementptr inbounds nuw [0 x i32], ptr %4, i64 0, i64 %indvars.iv
  %14 = load i32, ptr %13, align 4, !tbaa !34
  %15 = sext i32 %14 to i64
  %16 = getelementptr inbounds ptr, ptr %.val.val, i64 %15
  %17 = load ptr, ptr %16, align 8, !tbaa !12
  %.not = icmp eq ptr %17, null
  br i1 %.not, label %.critedge, label %18

18:                                               ; preds = %12
  %19 = getelementptr inbounds nuw i8, ptr %17, i64 92
  %20 = load float, ptr %19, align 4, !tbaa !36
  %21 = getelementptr inbounds [2 x [3 x float]], ptr @If_CutDelaySpecial.Pin2Pin, i64 0, i64 %11, i64 %indvars.iv
  %22 = load float, ptr %21, align 4, !tbaa !40
  %23 = fadd float %20, %22
  %24 = fcmp ogt float %.01518, %23
  %.015. = select i1 %24, float %.01518, float %23
  %indvars.iv.next = add nuw nsw i64 %indvars.iv, 1
  %exitcond.not = icmp eq i64 %indvars.iv.next, %wide.trip.count
  br i1 %exitcond.not, label %.critedge, label %12, !llvm.loop !41

.critedge:                                        ; preds = %12, %18, %3
  %.015.lcssa = phi float [ 0xC415AF1D80000000, %3 ], [ %.015., %18 ], [ %.01518, %12 ]
  ret float %.015.lcssa
}